(i__main__
students
p0
(dp1
S'status'
p2
I1
sS'password'
p3
S'1234'
p4
sS'name'
p5
S'jayprakash'
p6
sb.(i__main__
students
p0
(dp1
S'status'
p2
I1
sS'password'
p3
S'1234'
p4
sS'name'
p5
S'jay prakash'
p6
sb.(i__main__
students
p0
(dp1
S'status'
p2
I1
sS'password'
p3
S'1234'
p4
sS'name'
p5
S'jay prakash'
p6
sb.(i__main__
students
p0
(dp1
S'status'
p2
I1
sS'password'
p3
S'1234'
p4
sS'name'
p5
S'jay prakash'
p6
sb.(i__main__
students
p0
(dp1
S'status'
p2
I1
sS'password'
p3
S'1234'
p4
sS'name'
p5
S'jay prakash'
p6
sb.(i__main__
students
p0
(dp1
S'status'
p2
I1
sS'password'
p3
S'1234'
p4
sS'name'
p5
S'jay prakash'
p6
sb.(i__main__
students
p0
(dp1
S'status'
p2
I1
sS'password'
p3
S'1234'
p4
sS'name'
p5
S'jay prakash'
p6
sb.(i__main__
students
p0
(dp1
S'status'
p2
I1
sS'password'
p3
S'1234'
p4
sS'name'
p5
S'jay prakash'
p6
sb.(i__main__
students
p0
(dp1
S'status'
p2
I1
sS'password'
p3
S'1234'
p4
sS'name'
p5
S'jay prakash'
p6
sb.(i__main__
students
p0
(dp1
S'status'
p2
I1
sS'password'
p3
S'1234'
p4
sS'name'
p5
S'jay prakash'
p6
sb.(i__main__
students
p0
(dp1
S'status'
p2
I1
sS'password'
p3
S'1234'
p4
sS'name'
p5
S'jay prakash'
p6
sb.(i__main__
students
p0
(dp1
S'status'
p2
I1
sS'password'
p3
S'123'
p4
sS'name'
p5
S'jay'
p6
sb.(i__main__
students
p0
(dp1
S'status'
p2
I1
sS'password'
p3
S'123'
p4
sS'name'
p5
S'jay'
p6
sb.(i__main__
students
p0
(dp1
S'status'
p2
I1
sS'password'
p3
S'123'
p4
sS'name'
p5
S'jay'
p6
sb.(i__main__
students
p0
(dp1
S'status'
p2
I1
sS'password'
p3
S'123'
p4
sS'name'
p5
S'jay'
p6
sb.(i__main__
students
p0
(dp1
S'status'
p2
I1
sS'password'
p3
S'123'
p4
sS'name'
p5
S'jay'
p6
sb.(i__main__
students
p0
(dp1
S'status'
p2
I1
sS'password'
p3
S''
p4
sS'name'
p5
S'jay'
p6
sb.(i__main__
students
p0
(dp1
S'status'
p2
I1
sS'password'
p3
S'asd'
p4
sS'name'
p5
S'jay'
p6
sb.